; Function Attrs: nounwind uwtable
define noalias nonnull ptr @l_Lean_Compiler_LCNF_Testing_getTestName___boxed(ptr noundef %0, ptr noundef %1, ptr noundef %2, ptr noundef %3, ptr noundef %4, ptr noundef %5) local_unnamed_addr #0 {
  %7 = getelementptr inbounds nuw i8, ptr %0, i64 16
  %8 = load ptr, ptr %7, align 8, !tbaa !7
  %9 = ptrtoint ptr %8 to i64
  %10 = and i64 %9, 1
  %.not.i24 = icmp eq i64 %10, 0
  br i1 %.not.i24, label %11, label %lean_inc.exit.i

11:                                               ; preds = %6
  %.val.i.i = load i32, ptr %8, align 4, !tbaa !9
  %12 = icmp sgt i32 %.val.i.i, 0
  br i1 %12, label %13, label %15, !prof !12

13:                                               ; preds = %11
  %14 = add nuw i32 %.val.i.i, 1
  store i32 %14, ptr %8, align 4, !tbaa !9
  br label %lean_inc.exit.i

15:                                               ; preds = %11
  %.not.i.i = icmp eq i32 %.val.i.i, 0
  br i1 %.not.i.i, label %lean_inc.exit.i, label %16

16:                                               ; preds = %15
  tail call void @lean_inc_ref_cold(ptr noundef nonnull %8) #5
  br label %lean_inc.exit.i

lean_inc.exit.i:                                  ; preds = %16, %15, %13, %6
  tail call void @lean_inc_heartbeat() #5
  %17 = tail call noalias ptr @mi_malloc_small(i64 noundef 24) #5
  %18 = icmp eq ptr %17, null
  br i1 %18, label %19, label %l_Lean_Compiler_LCNF_Testing_getTestName.exit

19:                                               ; preds = %lean_inc.exit.i
  tail call void @lean_internal_panic_out_of_memory() #6
  unreachable

l_Lean_Compiler_LCNF_Testing_getTestName.exit:    ; preds = %lean_inc.exit.i
  %20 = getelementptr inbounds nuw i8, ptr %17, i64 4
  store i32 1, ptr %17, align 4, !tbaa !9
  store i32 131096, ptr %20, align 4
  %21 = getelementptr inbounds nuw i8, ptr %17, i64 8
  store ptr %8, ptr %21, align 8, !tbaa !7
  %22 = getelementptr inbounds nuw i8, ptr %17, i64 16
  store ptr %5, ptr %22, align 8, !tbaa !7
  %23 = ptrtoint ptr %4 to i64
  %24 = and i64 %23, 1
  %.not = icmp eq i64 %24, 0
  br i1 %.not, label %25, label %lean_dec.exit15

25:                                               ; preds = %l_Lean_Compiler_LCNF_Testing_getTestName.exit
  %26 = load i32, ptr %4, align 4, !tbaa !9
  %27 = icmp sgt i32 %26, 1
  br i1 %27, label %28, label %30, !prof !12

28:                                               ; preds = %25
  %29 = add nsw i32 %26, -1
  store i32 %29, ptr %4, align 4, !tbaa !9
  br label %lean_dec.exit15

30:                                               ; preds = %25
  %.not.i = icmp eq i32 %26, 0
  br i1 %.not.i, label %lean_dec.exit15, label %31

31:                                               ; preds = %30
  tail call void @lean_dec_ref_cold(ptr noundef nonnull %4) #5
  br label %lean_dec.exit15

lean_dec.exit15:                                  ; preds = %31, %30, %28, %l_Lean_Compiler_LCNF_Testing_getTestName.exit
  %32 = ptrtoint ptr %3 to i64
  %33 = and i64 %32, 1
  %.not25 = icmp eq i64 %33, 0
  br i1 %.not25, label %34, label %lean_dec.exit14

34:                                               ; preds = %lean_dec.exit15
  %35 = load i32, ptr %3, align 4, !tbaa !9
  %36 = icmp sgt i32 %35, 1
  br i1 %36, label %37, label %39, !prof !12

37:                                               ; preds = %34
  %38 = add nsw i32 %35, -1
  store i32 %38, ptr %3, align 4, !tbaa !9
  br label %lean_dec.exit14

39:                                               ; preds = %34
  %.not.i16 = icmp eq i32 %35, 0
  br i1 %.not.i16, label %lean_dec.exit14, label %40

40:                                               ; preds = %39
  tail call void @lean_dec_ref_cold(ptr noundef nonnull %3) #5
  br label %lean_dec.exit14

lean_dec.exit14:                                  ; preds = %40, %39, %37, %lean_dec.exit15
  %41 = ptrtoint ptr %2 to i64
  %42 = and i64 %41, 1
  %.not26 = icmp eq i64 %42, 0
  br i1 %.not26, label %43, label %lean_dec.exit13

43:                                               ; preds = %lean_dec.exit14
  %44 = load i32, ptr %2, align 4, !tbaa !9
  %45 = icmp sgt i32 %44, 1
  br i1 %45, label %46, label %48, !prof !12

46:                                               ; preds = %43
  %47 = add nsw i32 %44, -1
  store i32 %47, ptr %2, align 4, !tbaa !9
  br label %lean_dec.exit13

48:                                               ; preds = %43
  %.not.i18 = icmp eq i32 %44, 0
  br i1 %.not.i18, label %lean_dec.exit13, label %49

49:                                               ; preds = %48
  tail call void @lean_dec_ref_cold(ptr noundef nonnull %2) #5
  br label %lean_dec.exit13

lean_dec.exit13:                                  ; preds = %49, %48, %46, %lean_dec.exit14
  %50 = ptrtoint ptr %1 to i64
  %51 = and i64 %50, 1
  %.not27 = icmp eq i64 %51, 0
  br i1 %.not27, label %52, label %lean_dec.exit12

52:                                               ; preds = %lean_dec.exit13
  %53 = load i32, ptr %1, align 4, !tbaa !9
  %54 = icmp sgt i32 %53, 1
  br i1 %54, label %55, label %57, !prof !12

55:                                               ; preds = %52
  %56 = add nsw i32 %53, -1
  store i32 %56, ptr %1, align 4, !tbaa !9
  br label %lean_dec.exit12

57:                                               ; preds = %52
  %.not.i20 = icmp eq i32 %53, 0
  br i1 %.not.i20, label %lean_dec.exit12, label %58

58:                                               ; preds = %57
  tail call void @lean_dec_ref_cold(ptr noundef nonnull %1) #5
  br label %lean_dec.exit12

lean_dec.exit12:                                  ; preds = %58, %57, %55, %lean_dec.exit13
  %59 = ptrtoint ptr %0 to i64
  %60 = and i64 %59, 1
  %.not28 = icmp eq i64 %60, 0
  br i1 %.not28, label %61, label %lean_dec.exit

61:                                               ; preds = %lean_dec.exit12
  %62 = load i32, ptr %0, align 4, !tbaa !9
  %63 = icmp sgt i32 %62, 1
  br i1 %63, label %64, label %66, !prof !12

64:                                               ; preds = %61
  %65 = add nsw i32 %62, -1
  store i32 %65, ptr %0, align 4, !tbaa !9
  br label %lean_dec.exit

66:                                               ; preds = %61
  %.not.i22 = icmp eq i32 %62, 0
  br i1 %.not.i22, label %lean_dec.exit, label %67

67:                                               ; preds = %66
  tail call void @lean_dec_ref_cold(ptr noundef nonnull %0) #5
  br label %lean_dec.exit

lean_dec.exit:                                    ; preds = %67, %66, %64, %lean_dec.exit12
  ret ptr %17
}